target datalayout = "e-m:e-p270:32:32-p271:32:32-p272:64:64-i64:64-i128:128-f80:128-n8:16:32:64-S128"
target triple = "x86_64-pc-linux-gnu"

%struct.AVFilterContext = type { ptr, ptr, ptr, ptr, ptr, i32, ptr, ptr, i32, ptr, ptr, i32, i32, ptr, ptr, ptr, ptr, i32, ptr, i32, i32 }
%struct.AudioEmphasisContext = type { ptr, i32, i32, double, double, %struct.RIAACurve, ptr }
%struct.RIAACurve = type { %struct.BiquadCoeffs, %struct.BiquadCoeffs, i32 }
%struct.BiquadCoeffs = type { double, double, double, double, double }
%struct.ThreadData = type { ptr, ptr }
%struct.AVChannelLayout = type { i32, i32, %union.anon.1, ptr }
%union.anon.1 = type { i64 }
%struct.AVRational = type { i32, i32 }
%struct.AVFrame = type { [8 x ptr], [8 x i32], ptr, i32, i32, i32, i32, i32, %struct.AVRational, i64, i64, %struct.AVRational, i32, ptr, i32, i32, [8 x ptr], ptr, i32, ptr, i32, i32, i32, i32, i32, i32, i32, i64, ptr, i32, ptr, ptr, i64, i64, i64, i64, ptr, %struct.AVChannelLayout, i64 }

; Function Attrs: inlinehint nounwind uwtable
define internal void @biquad_process(ptr noundef %0, ptr noundef %1, ptr noundef %2, i32 noundef %3, ptr noundef %4, double noundef %5, double noundef %6) #5 {
  %8 = alloca ptr, align 8
  %9 = alloca ptr, align 8
  %10 = alloca ptr, align 8
  %11 = alloca i32, align 4
  %12 = alloca ptr, align 8
  %13 = alloca double, align 8
  %14 = alloca double, align 8
  %15 = alloca double, align 8
  %16 = alloca double, align 8
  %17 = alloca double, align 8
  %18 = alloca double, align 8
  %19 = alloca double, align 8
  %20 = alloca double, align 8
  %21 = alloca double, align 8
  %22 = alloca i32, align 4
  %23 = alloca double, align 8
  %24 = alloca double, align 8
  %25 = alloca double, align 8
  store ptr %0, ptr %8, align 8, !tbaa !80
  store ptr %1, ptr %9, align 8, !tbaa !77
  store ptr %2, ptr %10, align 8, !tbaa !77
  store i32 %3, ptr %11, align 4, !tbaa !25
  store ptr %4, ptr %12, align 8, !tbaa !77
  store double %5, ptr %13, align 8, !tbaa !51
  store double %6, ptr %14, align 8, !tbaa !51
  call void @llvm.lifetime.start.p0(i64 8, ptr %15) #8
  %26 = load ptr, ptr %8, align 8, !tbaa !80
  %27 = getelementptr inbounds nuw %struct.BiquadCoeffs, ptr %26, i32 0, i32 0
  %28 = load double, ptr %27, align 8, !tbaa !60
  store double %28, ptr %15, align 8, !tbaa !51
  call void @llvm.lifetime.start.p0(i64 8, ptr %16) #8
  %29 = load ptr, ptr %8, align 8, !tbaa !80
  %30 = getelementptr inbounds nuw %struct.BiquadCoeffs, ptr %29, i32 0, i32 1
  %31 = load double, ptr %30, align 8, !tbaa !61
  store double %31, ptr %16, align 8, !tbaa !51
  call void @llvm.lifetime.start.p0(i64 8, ptr %17) #8
  %32 = load ptr, ptr %8, align 8, !tbaa !80
  %33 = getelementptr inbounds nuw %struct.BiquadCoeffs, ptr %32, i32 0, i32 2
  %34 = load double, ptr %33, align 8, !tbaa !62
  store double %34, ptr %17, align 8, !tbaa !51
  call void @llvm.lifetime.start.p0(i64 8, ptr %18) #8
  %35 = load ptr, ptr %8, align 8, !tbaa !80
  %36 = getelementptr inbounds nuw %struct.BiquadCoeffs, ptr %35, i32 0, i32 3
  %37 = load double, ptr %36, align 8, !tbaa !63
  store double %37, ptr %18, align 8, !tbaa !51
  call void @llvm.lifetime.start.p0(i64 8, ptr %19) #8
  %38 = load ptr, ptr %8, align 8, !tbaa !80
  %39 = getelementptr inbounds nuw %struct.BiquadCoeffs, ptr %38, i32 0, i32 4
  %40 = load double, ptr %39, align 8, !tbaa !64
  store double %40, ptr %19, align 8, !tbaa !51
  call void @llvm.lifetime.start.p0(i64 8, ptr %20) #8
  %41 = load ptr, ptr %12, align 8, !tbaa !77
  %42 = getelementptr inbounds double, ptr %41, i64 0
  %43 = load double, ptr %42, align 8, !tbaa !51
  store double %43, ptr %20, align 8, !tbaa !51
  call void @llvm.lifetime.start.p0(i64 8, ptr %21) #8
  %44 = load ptr, ptr %12, align 8, !tbaa !77
  %45 = getelementptr inbounds double, ptr %44, i64 1
  %46 = load double, ptr %45, align 8, !tbaa !51
  store double %46, ptr %21, align 8, !tbaa !51
  call void @llvm.lifetime.start.p0(i64 4, ptr %22) #8
  store i32 0, ptr %22, align 4, !tbaa !25
  br label %47

47:                                               ; preds = %87, %7
  %48 = load i32, ptr %22, align 4, !tbaa !25
  %49 = load i32, ptr %11, align 4, !tbaa !25
  %50 = icmp slt i32 %48, %49
  br i1 %50, label %52, label %51

51:                                               ; preds = %47
  call void @llvm.lifetime.end.p0(i64 4, ptr %22) #8
  br label %90

52:                                               ; preds = %47
  call void @llvm.lifetime.start.p0(i64 8, ptr %23) #8
  %53 = load ptr, ptr %10, align 8, !tbaa !77
  %54 = load i32, ptr %22, align 4, !tbaa !25
  %55 = sext i32 %54 to i64
  %56 = getelementptr inbounds double, ptr %53, i64 %55
  %57 = load double, ptr %56, align 8, !tbaa !51
  %58 = load double, ptr %13, align 8, !tbaa !51
  %59 = fmul nsz double %57, %58
  store double %59, ptr %23, align 8, !tbaa !51
  call void @llvm.lifetime.start.p0(i64 8, ptr %24) #8
  %60 = load double, ptr %23, align 8, !tbaa !51
  %61 = load double, ptr %20, align 8, !tbaa !51
  %62 = load double, ptr %18, align 8, !tbaa !51
  %63 = fneg nsz double %61
  %64 = call nsz double @llvm.fmuladd.f64(double %63, double %62, double %60)
  %65 = load double, ptr %21, align 8, !tbaa !51
  %66 = load double, ptr %19, align 8, !tbaa !51
  %67 = fneg nsz double %65
  %68 = call nsz double @llvm.fmuladd.f64(double %67, double %66, double %64)
  store double %68, ptr %24, align 8, !tbaa !51
  call void @llvm.lifetime.start.p0(i64 8, ptr %25) #8
  %69 = load double, ptr %24, align 8, !tbaa !51
  %70 = load double, ptr %15, align 8, !tbaa !51
  %71 = load double, ptr %20, align 8, !tbaa !51
  %72 = load double, ptr %16, align 8, !tbaa !51
  %73 = fmul nsz double %71, %72
  %74 = call nsz double @llvm.fmuladd.f64(double %69, double %70, double %73)
  %75 = load double, ptr %21, align 8, !tbaa !51
  %76 = load double, ptr %17, align 8, !tbaa !51
  %77 = call nsz double @llvm.fmuladd.f64(double %75, double %76, double %74)
  store double %77, ptr %25, align 8, !tbaa !51
  %78 = load double, ptr %20, align 8, !tbaa !51
  store double %78, ptr %21, align 8, !tbaa !51
  %79 = load double, ptr %24, align 8, !tbaa !51
  store double %79, ptr %20, align 8, !tbaa !51
  %80 = load double, ptr %25, align 8, !tbaa !51
  %81 = load double, ptr %14, align 8, !tbaa !51
  %82 = fmul nsz double %80, %81
  %83 = load ptr, ptr %9, align 8, !tbaa !77
  %84 = load i32, ptr %22, align 4, !tbaa !25
  %85 = sext i32 %84 to i64
  %86 = getelementptr inbounds double, ptr %83, i64 %85
  store double %82, ptr %86, align 8, !tbaa !51
  call void @llvm.lifetime.end.p0(i64 8, ptr %25) #8
  call void @llvm.lifetime.end.p0(i64 8, ptr %24) #8
  call void @llvm.lifetime.end.p0(i64 8, ptr %23) #8
  br label %87

87:                                               ; preds = %52
  %88 = load i32, ptr %22, align 4, !tbaa !25
  %89 = add nsw i32 %88, 1
  store i32 %89, ptr %22, align 4, !tbaa !25
  br label %47, !llvm.loop !82

90:                                               ; preds = %51
  %91 = load double, ptr %20, align 8, !tbaa !51
  %92 = load ptr, ptr %12, align 8, !tbaa !77
  %93 = getelementptr inbounds double, ptr %92, i64 0
  store double %91, ptr %93, align 8, !tbaa !51
  %94 = load double, ptr %21, align 8, !tbaa !51
  %95 = load ptr, ptr %12, align 8, !tbaa !77
  %96 = getelementptr inbounds double, ptr %95, i64 1
  store double %94, ptr %96, align 8, !tbaa !51
  call void @llvm.lifetime.end.p0(i64 8, ptr %21) #8
  call void @llvm.lifetime.end.p0(i64 8, ptr %20) #8
  call void @llvm.lifetime.end.p0(i64 8, ptr %19) #8
  call void @llvm.lifetime.end.p0(i64 8, ptr %18) #8
  call void @llvm.lifetime.end.p0(i64 8, ptr %17) #8
  call void @llvm.lifetime.end.p0(i64 8, ptr %16) #8
  call void @llvm.lifetime.end.p0(i64 8, ptr %15) #8
  ret void
}

; Function Attrs: nounwind uwtable
define internal i32 @filter_channels(ptr noundef %0, ptr noundef %1, i32 noundef %2, i32 noundef %3) #1 {
  %5 = alloca ptr, align 8
  %6 = alloca ptr, align 8
  %7 = alloca i32, align 4
  %8 = alloca i32, align 4
  %9 = alloca ptr, align 8
  %10 = alloca double, align 8
  %11 = alloca double, align 8
  %12 = alloca ptr, align 8
  %13 = alloca ptr, align 8
  %14 = alloca ptr, align 8
  %15 = alloca i32, align 4
  %16 = alloca i32, align 4
  %17 = alloca i32, align 4
  %18 = alloca ptr, align 8
  %19 = alloca ptr, align 8
  %20 = alloca ptr, align 8
  store ptr %0, ptr %5, align 8, !tbaa !4
  store ptr %1, ptr %6, align 8, !tbaa !70
  store i32 %2, ptr %7, align 4, !tbaa !25
  store i32 %3, ptr %8, align 4, !tbaa !25
  call void @llvm.lifetime.start.p0(i64 8, ptr %9) #8
  %21 = load ptr, ptr %5, align 8, !tbaa !4
  %22 = getelementptr inbounds nuw %struct.AVFilterContext, ptr %21, i32 0, i32 9
  %23 = load ptr, ptr %22, align 8, !tbaa !9
  store ptr %23, ptr %9, align 8, !tbaa !22
  call void @llvm.lifetime.start.p0(i64 8, ptr %10) #8
  %24 = load ptr, ptr %9, align 8, !tbaa !22
  %25 = getelementptr inbounds nuw %struct.AudioEmphasisContext, ptr %24, i32 0, i32 4
  %26 = load double, ptr %25, align 8, !tbaa !71
  store double %26, ptr %10, align 8, !tbaa !51
  call void @llvm.lifetime.start.p0(i64 8, ptr %11) #8
  %27 = load ptr, ptr %9, align 8, !tbaa !22
  %28 = getelementptr inbounds nuw %struct.AudioEmphasisContext, ptr %27, i32 0, i32 3
  %29 = load double, ptr %28, align 8, !tbaa !72
  store double %29, ptr %11, align 8, !tbaa !51
  call void @llvm.lifetime.start.p0(i64 8, ptr %12) #8
  %30 = load ptr, ptr %6, align 8, !tbaa !70
  store ptr %30, ptr %12, align 8, !tbaa !73
  call void @llvm.lifetime.start.p0(i64 8, ptr %13) #8
  %31 = load ptr, ptr %12, align 8, !tbaa !73
  %32 = getelementptr inbounds nuw %struct.ThreadData, ptr %31, i32 0, i32 1
  %33 = load ptr, ptr %32, align 8, !tbaa !48
  store ptr %33, ptr %13, align 8, !tbaa !29
  call void @llvm.lifetime.start.p0(i64 8, ptr %14) #8
  %34 = load ptr, ptr %12, align 8, !tbaa !73
  %35 = getelementptr inbounds nuw %struct.ThreadData, ptr %34, i32 0, i32 0
  %36 = load ptr, ptr %35, align 8, !tbaa !46
  store ptr %36, ptr %14, align 8, !tbaa !29
  call void @llvm.lifetime.start.p0(i64 4, ptr %15) #8
  %37 = load ptr, ptr %14, align 8, !tbaa !29
  %38 = getelementptr inbounds nuw %struct.AVFrame, ptr %37, i32 0, i32 37
  %39 = getelementptr inbounds nuw %struct.AVChannelLayout, ptr %38, i32 0, i32 1
  %40 = load i32, ptr %39, align 4, !tbaa !75
  %41 = load i32, ptr %7, align 4, !tbaa !25
  %42 = mul nsw i32 %40, %41
  %43 = load i32, ptr %8, align 4, !tbaa !25
  %44 = sdiv i32 %42, %43
  store i32 %44, ptr %15, align 4, !tbaa !25
  call void @llvm.lifetime.start.p0(i64 4, ptr %16) #8
  %45 = load ptr, ptr %14, align 8, !tbaa !29
  %46 = getelementptr inbounds nuw %struct.AVFrame, ptr %45, i32 0, i32 37
  %47 = getelementptr inbounds nuw %struct.AVChannelLayout, ptr %46, i32 0, i32 1
  %48 = load i32, ptr %47, align 4, !tbaa !75
  %49 = load i32, ptr %7, align 4, !tbaa !25
  %50 = add nsw i32 %49, 1
  %51 = mul nsw i32 %48, %50
  %52 = load i32, ptr %8, align 4, !tbaa !25
  %53 = sdiv i32 %51, %52
  store i32 %53, ptr %16, align 4, !tbaa !25
  call void @llvm.lifetime.start.p0(i64 4, ptr %17) #8
  %54 = load i32, ptr %15, align 4, !tbaa !25
  store i32 %54, ptr %17, align 4, !tbaa !25
  br label %55

55:                                               ; preds = %124, %4
  %56 = load i32, ptr %17, align 4, !tbaa !25
  %57 = load i32, ptr %16, align 4, !tbaa !25
  %58 = icmp slt i32 %56, %57
  br i1 %58, label %60, label %59

59:                                               ; preds = %55
  call void @llvm.lifetime.end.p0(i64 4, ptr %17) #8
  br label %127

60:                                               ; preds = %55
  call void @llvm.lifetime.start.p0(i64 8, ptr %18) #8
  %61 = load ptr, ptr %14, align 8, !tbaa !29
  %62 = getelementptr inbounds nuw %struct.AVFrame, ptr %61, i32 0, i32 2
  %63 = load ptr, ptr %62, align 8, !tbaa !76
  %64 = load i32, ptr %17, align 4, !tbaa !25
  %65 = sext i32 %64 to i64
  %66 = getelementptr inbounds ptr, ptr %63, i64 %65
  %67 = load ptr, ptr %66, align 8, !tbaa !24
  store ptr %67, ptr %18, align 8, !tbaa !77
  call void @llvm.lifetime.start.p0(i64 8, ptr %19) #8
  %68 = load ptr, ptr %9, align 8, !tbaa !22
  %69 = getelementptr inbounds nuw %struct.AudioEmphasisContext, ptr %68, i32 0, i32 6
  %70 = load ptr, ptr %69, align 8, !tbaa !53
  %71 = getelementptr inbounds nuw %struct.AVFrame, ptr %70, i32 0, i32 2
  %72 = load ptr, ptr %71, align 8, !tbaa !76
  %73 = load i32, ptr %17, align 4, !tbaa !25
  %74 = sext i32 %73 to i64
  %75 = getelementptr inbounds ptr, ptr %72, i64 %74
  %76 = load ptr, ptr %75, align 8, !tbaa !24
  store ptr %76, ptr %19, align 8, !tbaa !77
  call void @llvm.lifetime.start.p0(i64 8, ptr %20) #8
  %77 = load ptr, ptr %13, align 8, !tbaa !29
  %78 = getelementptr inbounds nuw %struct.AVFrame, ptr %77, i32 0, i32 2
  %79 = load ptr, ptr %78, align 8, !tbaa !76
  %80 = load i32, ptr %17, align 4, !tbaa !25
  %81 = sext i32 %80 to i64
  %82 = getelementptr inbounds ptr, ptr %79, i64 %81
  %83 = load ptr, ptr %82, align 8, !tbaa !24
  store ptr %83, ptr %20, align 8, !tbaa !77
  %84 = load ptr, ptr %9, align 8, !tbaa !22
  %85 = getelementptr inbounds nuw %struct.AudioEmphasisContext, ptr %84, i32 0, i32 5
  %86 = getelementptr inbounds nuw %struct.RIAACurve, ptr %85, i32 0, i32 2
  %87 = load i32, ptr %86, align 8, !tbaa !59
  %88 = icmp ne i32 %87, 0
  br i1 %88, label %89, label %111

89:                                               ; preds = %60
  %90 = load ptr, ptr %9, align 8, !tbaa !22
  %91 = getelementptr inbounds nuw %struct.AudioEmphasisContext, ptr %90, i32 0, i32 5
  %92 = getelementptr inbounds nuw %struct.RIAACurve, ptr %91, i32 0, i32 1
  %93 = load ptr, ptr %20, align 8, !tbaa !77
  %94 = load ptr, ptr %18, align 8, !tbaa !77
  %95 = load ptr, ptr %14, align 8, !tbaa !29
  %96 = getelementptr inbounds nuw %struct.AVFrame, ptr %95, i32 0, i32 5
  %97 = load i32, ptr %96, align 8, !tbaa !40
  %98 = load ptr, ptr %19, align 8, !tbaa !77
  %99 = getelementptr inbounds double, ptr %98, i64 2
  %100 = load double, ptr %11, align 8, !tbaa !51
  call void @biquad_process(ptr noundef %92, ptr noundef %93, ptr noundef %94, i32 noundef %97, ptr noundef %99, double noundef %100, double noundef 1.000000e+00)
  %101 = load ptr, ptr %9, align 8, !tbaa !22
  %102 = getelementptr inbounds nuw %struct.AudioEmphasisContext, ptr %101, i32 0, i32 5
  %103 = getelementptr inbounds nuw %struct.RIAACurve, ptr %102, i32 0, i32 0
  %104 = load ptr, ptr %20, align 8, !tbaa !77
  %105 = load ptr, ptr %20, align 8, !tbaa !77
  %106 = load ptr, ptr %14, align 8, !tbaa !29
  %107 = getelementptr inbounds nuw %struct.AVFrame, ptr %106, i32 0, i32 5
  %108 = load i32, ptr %107, align 8, !tbaa !40
  %109 = load ptr, ptr %19, align 8, !tbaa !77
  %110 = load double, ptr %10, align 8, !tbaa !51
  call void @biquad_process(ptr noundef %103, ptr noundef %104, ptr noundef %105, i32 noundef %108, ptr noundef %109, double noundef 1.000000e+00, double noundef %110)
  br label %123

111:                                              ; preds = %60
  %112 = load ptr, ptr %9, align 8, !tbaa !22
  %113 = getelementptr inbounds nuw %struct.AudioEmphasisContext, ptr %112, i32 0, i32 5
  %114 = getelementptr inbounds nuw %struct.RIAACurve, ptr %113, i32 0, i32 0
  %115 = load ptr, ptr %20, align 8, !tbaa !77
  %116 = load ptr, ptr %18, align 8, !tbaa !77
  %117 = load ptr, ptr %14, align 8, !tbaa !29
  %118 = getelementptr inbounds nuw %struct.AVFrame, ptr %117, i32 0, i32 5
  %119 = load i32, ptr %118, align 8, !tbaa !40
  %120 = load ptr, ptr %19, align 8, !tbaa !77
  %121 = load double, ptr %11, align 8, !tbaa !51
  %122 = load double, ptr %10, align 8, !tbaa !51
  call void @biquad_process(ptr noundef %114, ptr noundef %115, ptr noundef %116, i32 noundef %119, ptr noundef %120, double noundef %121, double noundef %122)
  br label %123

123:                                              ; preds = %111, %89
  call void @llvm.lifetime.end.p0(i64 8, ptr %20) #8
  call void @llvm.lifetime.end.p0(i64 8, ptr %19) #8
  call void @llvm.lifetime.end.p0(i64 8, ptr %18) #8
  br label %124

124:                                              ; preds = %123
  %125 = load i32, ptr %17, align 4, !tbaa !25
  %126 = add nsw i32 %125, 1
  store i32 %126, ptr %17, align 4, !tbaa !25
  br label %55, !llvm.loop !78

127:                                              ; preds = %59
  call void @llvm.lifetime.end.p0(i64 4, ptr %16) #8
  call void @llvm.lifetime.end.p0(i64 4, ptr %15) #8
  call void @llvm.lifetime.end.p0(i64 8, ptr %14) #8
  call void @llvm.lifetime.end.p0(i64 8, ptr %13) #8
  call void @llvm.lifetime.end.p0(i64 8, ptr %12) #8
  call void @llvm.lifetime.end.p0(i64 8, ptr %11) #8
  call void @llvm.lifetime.end.p0(i64 8, ptr %10) #8
  call void @llvm.lifetime.end.p0(i64 8, ptr %9) #8
  ret i32 0
}