; Function Attrs: nofree norecurse nosync nounwind memory(readwrite, inaccessiblemem: none) uwtable
define internal noundef i32 @filter_channels(ptr noundef readonly captures(none) %0, ptr noundef readonly captures(none) %1, i32 noundef %2, i32 noundef %3) #4 {
  %5 = getelementptr inbounds nuw i8, ptr %0, i64 72
  %6 = load ptr, ptr %5, align 8, !tbaa !4
  %7 = getelementptr inbounds nuw i8, ptr %6, i64 24
  %8 = load double, ptr %7, align 8, !tbaa !64
  %9 = getelementptr inbounds nuw i8, ptr %6, i64 16
  %10 = load double, ptr %9, align 8, !tbaa !65
  %11 = load ptr, ptr %1, align 8, !tbaa !41
  %12 = getelementptr inbounds nuw i8, ptr %11, i64 388
  %13 = load i32, ptr %12, align 4, !tbaa !66
  %14 = mul nsw i32 %13, %2
  %15 = sdiv i32 %14, %3
  %16 = add nsw i32 %2, 1
  %17 = mul nsw i32 %13, %16
  %18 = sdiv i32 %17, %3
  %19 = icmp slt i32 %15, %18
  br i1 %19, label %.lr.ph, label %._crit_edge

.lr.ph:                                           ; preds = %4
  %20 = getelementptr inbounds nuw i8, ptr %1, i64 8
  %21 = load ptr, ptr %20, align 8, !tbaa !43
  %22 = getelementptr inbounds nuw i8, ptr %11, i64 96
  %23 = load ptr, ptr %22, align 8, !tbaa !67
  %24 = getelementptr inbounds nuw i8, ptr %6, i64 120
  %25 = load ptr, ptr %24, align 8, !tbaa !46
  %26 = getelementptr inbounds nuw i8, ptr %25, i64 96
  %27 = load ptr, ptr %26, align 8, !tbaa !67
  %28 = getelementptr inbounds nuw i8, ptr %21, i64 96
  %29 = load ptr, ptr %28, align 8, !tbaa !67
  %30 = getelementptr inbounds nuw i8, ptr %6, i64 32
  %31 = getelementptr inbounds nuw i8, ptr %6, i64 112
  %32 = load i32, ptr %31, align 8, !tbaa !58
  %.not = icmp eq i32 %32, 0
  %33 = getelementptr inbounds nuw i8, ptr %6, i64 72
  %34 = getelementptr inbounds nuw i8, ptr %6, i64 80
  %35 = getelementptr inbounds nuw i8, ptr %6, i64 88
  %36 = getelementptr inbounds nuw i8, ptr %6, i64 96
  %37 = getelementptr inbounds nuw i8, ptr %6, i64 104
  %38 = getelementptr inbounds nuw i8, ptr %6, i64 40
  %39 = getelementptr inbounds nuw i8, ptr %6, i64 48
  %40 = getelementptr inbounds nuw i8, ptr %6, i64 56
  %41 = getelementptr inbounds nuw i8, ptr %6, i64 64
  %42 = getelementptr inbounds nuw i8, ptr %11, i64 112
  %43 = load i32, ptr %42, align 8, !tbaa !35
  %44 = icmp sgt i32 %43, 0
  %wide.trip.count.i55.us = zext nneg i32 %43 to i64
  %45 = sext i32 %15 to i64
  %wide.trip.count86 = sext i32 %18 to i64
  br i1 %.not, label %.lr.ph.split.us, label %.lr.ph.split

.lr.ph.split.us:                                  ; preds = %.lr.ph
  br i1 %44, label %.lr.ph.preheader.i54.us.us, label %._crit_edge

.lr.ph.preheader.i54.us.us:                       ; preds = %.lr.ph.split.us, %biquad_process.exit62.loopexit.us.us
  %indvars.iv83 = phi i64 [ %indvars.iv.next84, %biquad_process.exit62.loopexit.us.us ], [ %45, %.lr.ph.split.us ]
  %46 = getelementptr inbounds ptr, ptr %23, i64 %indvars.iv83
  %47 = load ptr, ptr %46, align 8, !tbaa !68
  %48 = getelementptr inbounds ptr, ptr %27, i64 %indvars.iv83
  %49 = load ptr, ptr %48, align 8, !tbaa !68
  %50 = getelementptr inbounds ptr, ptr %29, i64 %indvars.iv83
  %51 = load ptr, ptr %50, align 8, !tbaa !68
  %52 = load double, ptr %30, align 8, !tbaa !55
  %53 = load double, ptr %38, align 8, !tbaa !56
  %54 = load double, ptr %39, align 8, !tbaa !57
  %55 = load double, ptr %40, align 8, !tbaa !53
  %56 = load double, ptr %41, align 8, !tbaa !54
  %57 = load double, ptr %49, align 8, !tbaa !69
  %58 = getelementptr inbounds nuw i8, ptr %49, i64 8
  %59 = load double, ptr %58, align 8, !tbaa !69
  br label %.lr.ph.i56.us.us

.lr.ph.i56.us.us:                                 ; preds = %.lr.ph.i56.us.us, %.lr.ph.preheader.i54.us.us
  %indvars.iv.i57.us.us = phi i64 [ 0, %.lr.ph.preheader.i54.us.us ], [ %indvars.iv.next.i60.us.us, %.lr.ph.i56.us.us ]
  %.037.i58.us.us = phi double [ %57, %.lr.ph.preheader.i54.us.us ], [ %66, %.lr.ph.i56.us.us ]
  %.03336.i59.us.us = phi double [ %59, %.lr.ph.preheader.i54.us.us ], [ %.037.i58.us.us, %.lr.ph.i56.us.us ]
  %60 = getelementptr inbounds nuw double, ptr %47, i64 %indvars.iv.i57.us.us
  %61 = load double, ptr %60, align 8, !tbaa !69
  %62 = fmul nsz double %10, %61
  %63 = fneg nsz double %.037.i58.us.us
  %64 = tail call nsz double @llvm.fmuladd.f64(double %63, double %55, double %62)
  %65 = fneg nsz double %.03336.i59.us.us
  %66 = tail call nsz double @llvm.fmuladd.f64(double %65, double %56, double %64)
  %67 = fmul nsz double %53, %.037.i58.us.us
  %68 = tail call nsz double @llvm.fmuladd.f64(double %66, double %52, double %67)
  %69 = tail call nsz double @llvm.fmuladd.f64(double %.03336.i59.us.us, double %54, double %68)
  %70 = fmul nsz double %8, %69
  %71 = getelementptr inbounds nuw double, ptr %51, i64 %indvars.iv.i57.us.us
  store double %70, ptr %71, align 8, !tbaa !69
  %indvars.iv.next.i60.us.us = add nuw nsw i64 %indvars.iv.i57.us.us, 1
  %exitcond.not.i61.us.us = icmp eq i64 %indvars.iv.next.i60.us.us, %wide.trip.count.i55.us
  br i1 %exitcond.not.i61.us.us, label %biquad_process.exit62.loopexit.us.us, label %.lr.ph.i56.us.us, !llvm.loop !70

biquad_process.exit62.loopexit.us.us:             ; preds = %.lr.ph.i56.us.us
  store double %66, ptr %49, align 8, !tbaa !69
  store double %.037.i58.us.us, ptr %58, align 8, !tbaa !69
  %indvars.iv.next84 = add nsw i64 %indvars.iv83, 1
  %exitcond87.not = icmp eq i64 %indvars.iv.next84, %wide.trip.count86
  br i1 %exitcond87.not, label %._crit_edge, label %.lr.ph.preheader.i54.us.us, !llvm.loop !72

.lr.ph.split:                                     ; preds = %.lr.ph
  br i1 %44, label %.lr.ph.preheader.i.us, label %._crit_edge

.lr.ph.preheader.i.us:                            ; preds = %.lr.ph.split, %biquad_process.exit51.loopexit.us
  %indvars.iv73 = phi i64 [ %indvars.iv.next74, %biquad_process.exit51.loopexit.us ], [ %45, %.lr.ph.split ]
  %72 = getelementptr inbounds ptr, ptr %23, i64 %indvars.iv73
  %73 = load ptr, ptr %72, align 8, !tbaa !68
  %74 = getelementptr inbounds ptr, ptr %27, i64 %indvars.iv73
  %75 = load ptr, ptr %74, align 8, !tbaa !68
  %76 = getelementptr inbounds ptr, ptr %29, i64 %indvars.iv73
  %77 = load ptr, ptr %76, align 8, !tbaa !68
  %78 = getelementptr inbounds nuw i8, ptr %75, i64 16
  %79 = load double, ptr %33, align 8, !tbaa !55
  %80 = load double, ptr %34, align 8, !tbaa !56
  %81 = load double, ptr %35, align 8, !tbaa !57
  %82 = load double, ptr %36, align 8, !tbaa !53
  %83 = load double, ptr %37, align 8, !tbaa !54
  %84 = load double, ptr %78, align 8, !tbaa !69
  %85 = getelementptr inbounds nuw i8, ptr %75, i64 24
  %86 = load double, ptr %85, align 8, !tbaa !69
  br label %.lr.ph.i.us

.lr.ph.i.us:                                      ; preds = %.lr.ph.i.us, %.lr.ph.preheader.i.us
  %indvars.iv.i.us = phi i64 [ 0, %.lr.ph.preheader.i.us ], [ %indvars.iv.next.i.us, %.lr.ph.i.us ]
  %.037.i.us = phi double [ %84, %.lr.ph.preheader.i.us ], [ %93, %.lr.ph.i.us ]
  %.03336.i.us = phi double [ %86, %.lr.ph.preheader.i.us ], [ %.037.i.us, %.lr.ph.i.us ]
  %87 = getelementptr inbounds nuw double, ptr %73, i64 %indvars.iv.i.us
  %88 = load double, ptr %87, align 8, !tbaa !69
  %89 = fmul nsz double %10, %88
  %90 = fneg nsz double %.037.i.us
  %91 = tail call nsz double @llvm.fmuladd.f64(double %90, double %82, double %89)
  %92 = fneg nsz double %.03336.i.us
  %93 = tail call nsz double @llvm.fmuladd.f64(double %92, double %83, double %91)
  %94 = fmul nsz double %80, %.037.i.us
  %95 = tail call nsz double @llvm.fmuladd.f64(double %93, double %79, double %94)
  %96 = tail call nsz double @llvm.fmuladd.f64(double %.03336.i.us, double %81, double %95)
  %97 = getelementptr inbounds nuw double, ptr %77, i64 %indvars.iv.i.us
  store double %96, ptr %97, align 8, !tbaa !69
  %indvars.iv.next.i.us = add nuw nsw i64 %indvars.iv.i.us, 1
  %exitcond.not.i.us = icmp eq i64 %indvars.iv.next.i.us, %wide.trip.count.i55.us
  br i1 %exitcond.not.i.us, label %biquad_process.exit.loopexit.us, label %.lr.ph.i.us, !llvm.loop !70

.lr.ph.i45.us:                                    ; preds = %.lr.ph.i45.us, %biquad_process.exit.loopexit.us
  %indvars.iv.i46.us = phi i64 [ 0, %biquad_process.exit.loopexit.us ], [ %indvars.iv.next.i49.us, %.lr.ph.i45.us ]
  %.037.i47.us = phi double [ %113, %biquad_process.exit.loopexit.us ], [ %103, %.lr.ph.i45.us ]
  %.03336.i48.us = phi double [ %115, %biquad_process.exit.loopexit.us ], [ %.037.i47.us, %.lr.ph.i45.us ]
  %98 = getelementptr inbounds nuw double, ptr %77, i64 %indvars.iv.i46.us
  %99 = load double, ptr %98, align 8, !tbaa !69
  %100 = fneg nsz double %.037.i47.us
  %101 = tail call nsz double @llvm.fmuladd.f64(double %100, double %111, double %99)
  %102 = fneg nsz double %.03336.i48.us
  %103 = tail call nsz double @llvm.fmuladd.f64(double %102, double %112, double %101)
  %104 = fmul nsz double %109, %.037.i47.us
  %105 = tail call nsz double @llvm.fmuladd.f64(double %103, double %108, double %104)
  %106 = tail call nsz double @llvm.fmuladd.f64(double %.03336.i48.us, double %110, double %105)
  %107 = fmul nsz double %8, %106
  store double %107, ptr %98, align 8, !tbaa !69
  %indvars.iv.next.i49.us = add nuw nsw i64 %indvars.iv.i46.us, 1
  %exitcond.not.i50.us = icmp eq i64 %indvars.iv.next.i49.us, %wide.trip.count.i55.us
  br i1 %exitcond.not.i50.us, label %biquad_process.exit51.loopexit.us, label %.lr.ph.i45.us, !llvm.loop !70

biquad_process.exit51.loopexit.us:                ; preds = %.lr.ph.i45.us
  store double %103, ptr %75, align 8, !tbaa !69
  store double %.037.i47.us, ptr %114, align 8, !tbaa !69
  %indvars.iv.next74 = add nsw i64 %indvars.iv73, 1
  %exitcond77.not = icmp eq i64 %indvars.iv.next74, %wide.trip.count86
  br i1 %exitcond77.not, label %._crit_edge, label %.lr.ph.preheader.i.us, !llvm.loop !72

biquad_process.exit.loopexit.us:                  ; preds = %.lr.ph.i.us
  store double %93, ptr %78, align 8, !tbaa !69
  store double %.037.i.us, ptr %85, align 8, !tbaa !69
  %108 = load double, ptr %30, align 8, !tbaa !55
  %109 = load double, ptr %38, align 8, !tbaa !56
  %110 = load double, ptr %39, align 8, !tbaa !57
  %111 = load double, ptr %40, align 8, !tbaa !53
  %112 = load double, ptr %41, align 8, !tbaa !54
  %113 = load double, ptr %75, align 8, !tbaa !69
  %114 = getelementptr inbounds nuw i8, ptr %75, i64 8
  %115 = load double, ptr %114, align 8, !tbaa !69
  br label %.lr.ph.i45.us

._crit_edge:                                      ; preds = %biquad_process.exit51.loopexit.us, %biquad_process.exit62.loopexit.us.us, %.lr.ph.split, %.lr.ph.split.us, %4
  ret i32 0
}